target datalayout = "e-m:e-p270:32:32-p271:32:32-p272:64:64-i64:64-i128:128-f80:128-n8:16:32:64-S128"
target triple = "x86_64-pc-linux-gnu"

%struct.t_inputrec = type { i32, i32, i64, i32, i64, i32, i32, i32, i32, i32, i32, i32, i32, i32, i32, i32, double, double, i8, %"class.std::vector", float, float, float, i32, i32, i32, i32, float, float, i32, float, i32, i32, i8, i8, i32, float, i32, i32, i8, %struct.PressureCouplingOptions, %"class.std::vector.3", %"class.std::vector.3", i32, float, float, float, float, i32, i32, float, float, float, float, i8, i32, i32, float, float, i32, float, float, i32, %"class.std::unique_ptr", i8, %"class.std::unique_ptr.10", i8, %"class.std::unique_ptr.18", i32, float, i32, i8, i32, float, float, float, i32, float, float, i32, float, i32, i32, i32, i32, float, i32, i8, float, i64, i32, i32, float, [2 x i32], [2 x float], float, i8, %"class.std::unique_ptr.26", i8, %"class.std::unique_ptr.34", i8, %"class.std::unique_ptr.42", i32, ptr, i8, ptr, float, [3 x [3 x float]], i32, i32, i32, i32, float, float, float, float, %struct.t_grpopts, i8, i8, i8, i8, ptr, %"class.std::unique_ptr.50" }
%"class.std::vector" = type { %"struct.std::_Vector_base" }
%"struct.std::_Vector_base" = type { %"struct.std::_Vector_base<gmx::MtsLevel, std::allocator<gmx::MtsLevel>>::_Vector_impl" }
%"struct.std::_Vector_base<gmx::MtsLevel, std::allocator<gmx::MtsLevel>>::_Vector_impl" = type { %"struct.std::_Vector_base<gmx::MtsLevel, std::allocator<gmx::MtsLevel>>::_Vector_impl_data" }
%"struct.std::_Vector_base<gmx::MtsLevel, std::allocator<gmx::MtsLevel>>::_Vector_impl_data" = type { ptr, ptr, ptr }
%struct.PressureCouplingOptions = type { i32, i32, i32, float, [3 x [3 x float]], [3 x [3 x float]], i32 }
%"class.std::vector.3" = type { %"struct.std::_Vector_base.4" }
%"struct.std::_Vector_base.4" = type { %"struct.std::_Vector_base<gmx::BasicVector<float>, std::allocator<gmx::BasicVector<float>>>::_Vector_impl" }
%"struct.std::_Vector_base<gmx::BasicVector<float>, std::allocator<gmx::BasicVector<float>>>::_Vector_impl" = type { %"struct.std::_Vector_base<gmx::BasicVector<float>, std::allocator<gmx::BasicVector<float>>>::_Vector_impl_data" }
%"struct.std::_Vector_base<gmx::BasicVector<float>, std::allocator<gmx::BasicVector<float>>>::_Vector_impl_data" = type { ptr, ptr, ptr }
%"class.std::unique_ptr" = type { %"struct.std::__uniq_ptr_data" }
%"struct.std::__uniq_ptr_data" = type { %"class.std::__uniq_ptr_impl" }
%"class.std::__uniq_ptr_impl" = type { %"class.std::tuple" }
%"class.std::tuple" = type { %"struct.std::_Tuple_impl" }
%"struct.std::_Tuple_impl" = type { %"struct.std::_Head_base.9" }
%"struct.std::_Head_base.9" = type { ptr }
%"class.std::unique_ptr.10" = type { %"struct.std::__uniq_ptr_data.11" }
%"struct.std::__uniq_ptr_data.11" = type { %"class.std::__uniq_ptr_impl.12" }
%"class.std::__uniq_ptr_impl.12" = type { %"class.std::tuple.13" }
%"class.std::tuple.13" = type { %"struct.std::_Tuple_impl.14" }
%"struct.std::_Tuple_impl.14" = type { %"struct.std::_Head_base.17" }
%"struct.std::_Head_base.17" = type { ptr }
%"class.std::unique_ptr.18" = type { %"struct.std::__uniq_ptr_data.19" }
%"struct.std::__uniq_ptr_data.19" = type { %"class.std::__uniq_ptr_impl.20" }
%"class.std::__uniq_ptr_impl.20" = type { %"class.std::tuple.21" }
%"class.std::tuple.21" = type { %"struct.std::_Tuple_impl.22" }
%"struct.std::_Tuple_impl.22" = type { %"struct.std::_Head_base.25" }
%"struct.std::_Head_base.25" = type { ptr }
%"class.std::unique_ptr.26" = type { %"struct.std::__uniq_ptr_data.27" }
%"struct.std::__uniq_ptr_data.27" = type { %"class.std::__uniq_ptr_impl.28" }
%"class.std::__uniq_ptr_impl.28" = type { %"class.std::tuple.29" }
%"class.std::tuple.29" = type { %"struct.std::_Tuple_impl.30" }
%"struct.std::_Tuple_impl.30" = type { %"struct.std::_Head_base.33" }
%"struct.std::_Head_base.33" = type { ptr }
%"class.std::unique_ptr.34" = type { %"struct.std::__uniq_ptr_data.35" }
%"struct.std::__uniq_ptr_data.35" = type { %"class.std::__uniq_ptr_impl.36" }
%"class.std::__uniq_ptr_impl.36" = type { %"class.std::tuple.37" }
%"class.std::tuple.37" = type { %"struct.std::_Tuple_impl.38" }
%"struct.std::_Tuple_impl.38" = type { %"struct.std::_Head_base.41" }
%"struct.std::_Head_base.41" = type { ptr }
%"class.std::unique_ptr.42" = type { %"struct.std::__uniq_ptr_data.43" }
%"struct.std::__uniq_ptr_data.43" = type { %"class.std::__uniq_ptr_impl.44" }
%"class.std::__uniq_ptr_impl.44" = type { %"class.std::tuple.45" }
%"class.std::tuple.45" = type { %"struct.std::_Tuple_impl.46" }
%"struct.std::_Tuple_impl.46" = type { %"struct.std::_Head_base.49" }
%"struct.std::_Head_base.49" = type { ptr }
%struct.t_grpopts = type <{ i32, i32, i32, i32, i32, [4 x i8], ptr, ptr, ptr, ptr, ptr, ptr, ptr, ptr, ptr, ptr, i32, [4 x i8] }>
%"class.std::unique_ptr.50" = type { %"struct.std::__uniq_ptr_data.51" }
%"struct.std::__uniq_ptr_data.51" = type { %"class.std::__uniq_ptr_impl.52" }
%"class.std::__uniq_ptr_impl.52" = type { %"class.std::tuple.53" }
%"class.std::tuple.53" = type { %"struct.std::_Tuple_impl.54" }
%"struct.std::_Tuple_impl.54" = type { %"struct.std::_Head_base.57" }
%"struct.std::_Head_base.57" = type { ptr }
%class.anon.162 = type { i8 }

@.str.10 = private unnamed_addr constant [126 x i8] c"generated/home/dtcxzyw/WorkSpace/Projects/compilers/llvm-opt-benchmark/bench/gromacs/gromacs/src/gromacs/mdtypes/inputrec.cpp\00", align 1
@.str.528 = private unnamed_addr constant [142 x i8] c"rts == EnsembleTemperatureSetting::NotAvailable || rts == EnsembleTemperatureSetting::Constant || rts == EnsembleTemperatureSetting::Variable\00", align 1
@.str.529 = private unnamed_addr constant [74 x i8] c"At this point in the code the ensemble temperature setting cannot be auto\00", align 1
@"__PRETTY_FUNCTION__._ZZL37assertValidEnsembleTemperatureSetting26EnsembleTemperatureSettingENK3$_0clEv" = private unnamed_addr constant [116 x i8] c"auto assertValidEnsembleTemperatureSetting(const EnsembleTemperatureSetting)::(anonymous class)::operator()() const\00", align 1

; Function Attrs: inlinehint mustprogress uwtable
define internal void @"_ZZL37assertValidEnsembleTemperatureSetting26EnsembleTemperatureSettingENK3$_0clEv"(ptr noundef nonnull align 1 dereferenceable(1) %0) #8 align 2 {
  %2 = alloca ptr, align 8
  store ptr %0, ptr %2, align 8, !tbaa !767
  call void @_ZN3gmx8internal13assertHandlerEPKcS2_S2_S2_i(ptr noundef @.str.528, ptr noundef @.str.529, ptr noundef @"__PRETTY_FUNCTION__._ZZL37assertValidEnsembleTemperatureSetting26EnsembleTemperatureSettingENK3$_0clEv", ptr noundef @.str.10, i32 noundef 1725) #17
  unreachable
}

; Function Attrs: mustprogress uwtable
define internal void @_ZL37assertValidEnsembleTemperatureSetting26EnsembleTemperatureSetting(i32 noundef %0) #3 {
  %2 = alloca i32, align 4
  %3 = alloca %class.anon.162, align 1
  store i32 %0, ptr %2, align 4, !tbaa !995
  %4 = load i32, ptr %2, align 4, !tbaa !995
  %5 = icmp eq i32 %4, 0
  call void @llvm.lifetime.start.p0(i64 1, ptr %3) #5
  br i1 %5, label %12, label %6

6:                                                ; preds = %1
  %7 = load i32, ptr %2, align 4, !tbaa !995
  %8 = icmp eq i32 %7, 1
  br i1 %8, label %12, label %9

9:                                                ; preds = %6
  %10 = load i32, ptr %2, align 4, !tbaa !995
  %11 = icmp eq i32 %10, 2
  br i1 %11, label %12, label %13

12:                                               ; preds = %9, %6, %1
  br label %14

13:                                               ; preds = %9
  call void @"_ZZL37assertValidEnsembleTemperatureSetting26EnsembleTemperatureSettingENK3$_0clEv"(ptr noundef nonnull align 1 dereferenceable(1) %3)
  br label %14

14:                                               ; preds = %13, %12
  call void @llvm.lifetime.end.p0(i64 1, ptr %3) #5
  ret void
}

; Function Attrs: mustprogress uwtable
define noundef zeroext i1 @_Z31haveConstantEnsembleTemperatureRK10t_inputrec(ptr noundef nonnull align 8 dereferenceable(880) %0) #3 {
  %2 = alloca ptr, align 8
  store ptr %0, ptr %2, align 8, !tbaa !34
  %3 = load ptr, ptr %2, align 8, !tbaa !34
  %4 = getelementptr inbounds nuw %struct.t_inputrec, ptr %3, i32 0, i32 35
  %5 = load i32, ptr %4, align 8, !tbaa !796
  call void @_ZL37assertValidEnsembleTemperatureSetting26EnsembleTemperatureSetting(i32 noundef %5)
  %6 = load ptr, ptr %2, align 8, !tbaa !34
  %7 = getelementptr inbounds nuw %struct.t_inputrec, ptr %6, i32 0, i32 35
  %8 = load i32, ptr %7, align 8, !tbaa !796
  %9 = icmp eq i32 %8, 1
  ret i1 %9
}