; Function Attrs: mustprogress uwtable
define noundef zeroext i1 @_Z31haveConstantEnsembleTemperatureRK10t_inputrec(ptr noundef nonnull readonly align 8 captures(none) dereferenceable(880) %0) local_unnamed_addr #1 {
  %2 = getelementptr inbounds nuw i8, ptr %0, i64 184
  %3 = load i32, ptr %2, align 8, !tbaa !316
  %or.cond3.i = icmp ult i32 %3, 3
  br i1 %or.cond3.i, label %_ZL37assertValidEnsembleTemperatureSetting26EnsembleTemperatureSetting.exit, label %4

4:                                                ; preds = %1
  tail call void @_ZN3gmx8internal13assertHandlerEPKcS2_S2_S2_i(ptr noundef nonnull @.str.528, ptr noundef nonnull @.str.529, ptr noundef nonnull @"__PRETTY_FUNCTION__._ZZL37assertValidEnsembleTemperatureSetting26EnsembleTemperatureSettingENK3$_0clEv", ptr noundef nonnull @.str.10, i32 noundef 1725) #23
  unreachable

_ZL37assertValidEnsembleTemperatureSetting26EnsembleTemperatureSetting.exit: ; preds = %1
  %5 = icmp eq i32 %3, 1
  ret i1 %5
}